target datalayout = "e-m:e-p270:32:32-p271:32:32-p272:64:64-i64:64-i128:128-f80:128-n8:16:32:64-S128"
target triple = "x86_64-pc-linux-gnu"

%struct.RTSPMessageHeader = type { i32, i32, i32, i64, i64, [8 x %struct.RTSPTransportField], i32, [512 x i8], [4096 x i8], [64 x i8], [64 x i8], i32, i32, [256 x i8], [64 x i8], [64 x i8] }
%struct.RTSPTransportField = type { i32, i32, i32, i32, i32, i32, i32, i32, i32, i32, %struct.sockaddr_storage, [47 x i8], i32, i32 }
%struct.sockaddr_storage = type { i16, [118 x i8], i64 }
%struct.AVFormatContext = type { ptr, ptr, ptr, ptr, ptr, i32, i32, ptr, i32, ptr, i32, ptr, ptr, i64, i64, i64, i32, i32, i32, i64, i64, ptr, i32, i32, ptr, i32, i32, i32, i32, ptr, i64, i32, i32, %struct.AVIOInterruptCB, i32, i32, i32, i32, i64, i32, i32, i32, i32, i32, i32, i32, i32, i32, i32, i32, i32, i64, i32, i32, i32, i32, i32, ptr, ptr, ptr, ptr, i32, ptr, ptr, ptr, ptr, i32, ptr, ptr, i64, ptr, ptr, ptr, i64 }
%struct.AVIOInterruptCB = type { ptr, ptr }
%struct.RTSPState = type { ptr, ptr, i32, ptr, i32, i64, i32, [512 x i8], i32, i64, i32, i32, i32, [64 x i8], [128 x i8], %struct.HTTPAuthState, [2048 x i8], ptr, i32, ptr, ptr, [1024 x i8], ptr, i64, [4096 x i8], ptr, i32, i32, ptr, i32, i32, ptr, i32, i64, ptr, i32, i32, i32, i32, i32, i32, i32, i32, i32, i32, i64, i32, ptr, [4 x i8], i32, i32, ptr }
%struct.HTTPAuthState = type { i32, [200 x i8], %struct.DigestParams, i32 }
%struct.DigestParams = type { [300 x i8], [10 x i8], [30 x i8], [300 x i8], [10 x i8], i32 }
%struct.RTSPStream = type { ptr, ptr, i32, i32, i32, [4096 x i8], i32, %struct.sockaddr_storage, i32, ptr, i32, ptr, i32, i32, ptr, ptr, i32, i32, [40 x i8], [100 x i8] }
%struct.pollfd = type { i32, i16, i16 }
%struct.AVPacket = type { ptr, i64, i64, ptr, i32, i32, i32, ptr, i32, i64, i64, ptr, ptr, %struct.AVRational }
%struct.AVRational = type { i32, i32 }

; Function Attrs: nounwind uwtable
define internal i32 @rtsp_write_packet(ptr noundef %0, ptr noundef %1) #0 {
  %3 = alloca i32, align 4
  %4 = alloca ptr, align 8
  %5 = alloca ptr, align 8
  %6 = alloca ptr, align 8
  %7 = alloca ptr, align 8
  %8 = alloca i32, align 4
  %9 = alloca %struct.pollfd, align 4
  %10 = alloca ptr, align 8
  %11 = alloca i32, align 4
  %12 = alloca %struct.RTSPMessageHeader, align 8
  %13 = alloca i32, align 4
  store ptr %0, ptr %4, align 8, !tbaa !4
  store ptr %1, ptr %5, align 8, !tbaa !81
  call void @llvm.lifetime.start.p0(i64 8, ptr %6) #8
  %14 = load ptr, ptr %4, align 8, !tbaa !4
  %15 = getelementptr inbounds nuw %struct.AVFormatContext, ptr %14, i32 0, i32 3
  %16 = load ptr, ptr %15, align 8, !tbaa !11
  store ptr %16, ptr %6, align 8, !tbaa !27
  call void @llvm.lifetime.start.p0(i64 8, ptr %7) #8
  call void @llvm.lifetime.start.p0(i64 4, ptr %8) #8
  call void @llvm.lifetime.start.p0(i64 8, ptr %9) #8
  %17 = getelementptr inbounds nuw %struct.pollfd, ptr %9, i32 0, i32 0
  %18 = load ptr, ptr %6, align 8, !tbaa !27
  %19 = getelementptr inbounds nuw %struct.RTSPState, ptr %18, i32 0, i32 1
  %20 = load ptr, ptr %19, align 8, !tbaa !83
  %21 = call i32 @ffurl_get_file_handle(ptr noundef %20)
  store i32 %21, ptr %17, align 4, !tbaa !84
  %22 = getelementptr inbounds nuw %struct.pollfd, ptr %9, i32 0, i32 1
  store i16 1, ptr %22, align 4, !tbaa !86
  %23 = getelementptr inbounds nuw %struct.pollfd, ptr %9, i32 0, i32 2
  store i16 0, ptr %23, align 2, !tbaa !87
  call void @llvm.lifetime.start.p0(i64 8, ptr %10) #8
  call void @llvm.lifetime.start.p0(i64 4, ptr %11) #8
  br label %24

24:                                               ; preds = %63, %2
  br label %25

25:                                               ; preds = %24
  %26 = call i32 @poll(ptr noundef %9, i64 noundef 1, i32 noundef 0)
  store i32 %26, ptr %8, align 4, !tbaa !38
  %27 = load i32, ptr %8, align 4, !tbaa !38
  %28 = icmp sle i32 %27, 0
  br i1 %28, label %29, label %30

29:                                               ; preds = %25
  br label %64

30:                                               ; preds = %25
  %31 = getelementptr inbounds nuw %struct.pollfd, ptr %9, i32 0, i32 2
  %32 = load i16, ptr %31, align 2, !tbaa !87
  %33 = sext i16 %32 to i32
  %34 = and i32 %33, 1
  %35 = icmp ne i32 %34, 0
  br i1 %35, label %36, label %63

36:                                               ; preds = %30
  call void @llvm.lifetime.start.p0(i64 6960, ptr %12) #8
  %37 = load ptr, ptr %4, align 8, !tbaa !4
  %38 = call i32 @ff_rtsp_read_reply(ptr noundef %37, ptr noundef %12, ptr noundef null, i32 noundef 1, ptr noundef null)
  store i32 %38, ptr %11, align 4, !tbaa !38
  %39 = load i32, ptr %11, align 4, !tbaa !38
  %40 = icmp slt i32 %39, 0
  br i1 %40, label %41, label %42

41:                                               ; preds = %36
  store i32 -32, ptr %3, align 4
  store i32 1, ptr %13, align 4
  br label %60

42:                                               ; preds = %36
  %43 = load i32, ptr %11, align 4, !tbaa !38
  %44 = icmp eq i32 %43, 1
  br i1 %44, label %45, label %53

45:                                               ; preds = %42
  %46 = load ptr, ptr %4, align 8, !tbaa !4
  %47 = call i32 @ff_rtsp_skip_packet(ptr noundef %46)
  store i32 %47, ptr %11, align 4, !tbaa !38
  %48 = load i32, ptr %11, align 4, !tbaa !38
  %49 = icmp slt i32 %48, 0
  br i1 %49, label %50, label %52

50:                                               ; preds = %45
  %51 = load i32, ptr %11, align 4, !tbaa !38
  store i32 %51, ptr %3, align 4
  store i32 1, ptr %13, align 4
  br label %60

52:                                               ; preds = %45
  br label %53

53:                                               ; preds = %52, %42
  %54 = load ptr, ptr %6, align 8, !tbaa !27
  %55 = getelementptr inbounds nuw %struct.RTSPState, ptr %54, i32 0, i32 4
  %56 = load i32, ptr %55, align 8, !tbaa !88
  %57 = icmp ne i32 %56, 1
  br i1 %57, label %58, label %59

58:                                               ; preds = %53
  store i32 -32, ptr %3, align 4
  store i32 1, ptr %13, align 4
  br label %60

59:                                               ; preds = %53
  store i32 0, ptr %13, align 4
  br label %60

60:                                               ; preds = %59, %58, %50, %41
  call void @llvm.lifetime.end.p0(i64 6960, ptr %12) #8
  %61 = load i32, ptr %13, align 4
  switch i32 %61, label %108 [
    i32 0, label %62
  ]

62:                                               ; preds = %60
  br label %63

63:                                               ; preds = %62, %30
  br label %24

64:                                               ; preds = %29
  %65 = load ptr, ptr %5, align 8, !tbaa !81
  %66 = getelementptr inbounds nuw %struct.AVPacket, ptr %65, i32 0, i32 5
  %67 = load i32, ptr %66, align 4, !tbaa !89
  %68 = icmp slt i32 %67, 0
  br i1 %68, label %77, label %69

69:                                               ; preds = %64
  %70 = load ptr, ptr %5, align 8, !tbaa !81
  %71 = getelementptr inbounds nuw %struct.AVPacket, ptr %70, i32 0, i32 5
  %72 = load i32, ptr %71, align 4, !tbaa !89
  %73 = load ptr, ptr %6, align 8, !tbaa !27
  %74 = getelementptr inbounds nuw %struct.RTSPState, ptr %73, i32 0, i32 2
  %75 = load i32, ptr %74, align 8, !tbaa !94
  %76 = icmp sge i32 %72, %75
  br i1 %76, label %77, label %78

77:                                               ; preds = %69, %64
  store i32 -1094995529, ptr %3, align 4
  store i32 1, ptr %13, align 4
  br label %108

78:                                               ; preds = %69
  %79 = load ptr, ptr %6, align 8, !tbaa !27
  %80 = getelementptr inbounds nuw %struct.RTSPState, ptr %79, i32 0, i32 3
  %81 = load ptr, ptr %80, align 8, !tbaa !95
  %82 = load ptr, ptr %5, align 8, !tbaa !81
  %83 = getelementptr inbounds nuw %struct.AVPacket, ptr %82, i32 0, i32 5
  %84 = load i32, ptr %83, align 4, !tbaa !89
  %85 = sext i32 %84 to i64
  %86 = getelementptr inbounds ptr, ptr %81, i64 %85
  %87 = load ptr, ptr %86, align 8, !tbaa !50
  store ptr %87, ptr %7, align 8, !tbaa !50
  %88 = load ptr, ptr %7, align 8, !tbaa !50
  %89 = getelementptr inbounds nuw %struct.RTSPStream, ptr %88, i32 0, i32 1
  %90 = load ptr, ptr %89, align 8, !tbaa !65
  store ptr %90, ptr %10, align 8, !tbaa !4
  %91 = load ptr, ptr %10, align 8, !tbaa !4
  %92 = load ptr, ptr %5, align 8, !tbaa !81
  %93 = load ptr, ptr %4, align 8, !tbaa !4
  %94 = call i32 @ff_write_chained(ptr noundef %91, i32 noundef 0, ptr noundef %92, ptr noundef %93, i32 noundef 0)
  store i32 %94, ptr %11, align 4, !tbaa !38
  %95 = load i32, ptr %11, align 4, !tbaa !38
  %96 = icmp ne i32 %95, 0
  br i1 %96, label %106, label %97

97:                                               ; preds = %78
  %98 = load ptr, ptr %6, align 8, !tbaa !27
  %99 = getelementptr inbounds nuw %struct.RTSPState, ptr %98, i32 0, i32 11
  %100 = load i32, ptr %99, align 4, !tbaa !96
  %101 = icmp eq i32 %100, 1
  br i1 %101, label %102, label %106

102:                                              ; preds = %97
  %103 = load ptr, ptr %4, align 8, !tbaa !4
  %104 = load ptr, ptr %7, align 8, !tbaa !50
  %105 = call i32 @ff_rtsp_tcp_write_packet(ptr noundef %103, ptr noundef %104)
  store i32 %105, ptr %11, align 4, !tbaa !38
  br label %106

106:                                              ; preds = %102, %97, %78
  %107 = load i32, ptr %11, align 4, !tbaa !38
  store i32 %107, ptr %3, align 4
  store i32 1, ptr %13, align 4
  br label %108

108:                                              ; preds = %106, %77, %60
  call void @llvm.lifetime.end.p0(i64 4, ptr %11) #8
  call void @llvm.lifetime.end.p0(i64 8, ptr %10) #8
  call void @llvm.lifetime.end.p0(i64 8, ptr %9) #8
  call void @llvm.lifetime.end.p0(i64 4, ptr %8) #8
  call void @llvm.lifetime.end.p0(i64 8, ptr %7) #8
  call void @llvm.lifetime.end.p0(i64 8, ptr %6) #8
  %109 = load i32, ptr %3, align 4
  ret i32 %109
}