; Function Attrs: nounwind uwtable
define internal i32 @rtsp_write_packet(ptr noundef %0, ptr noundef %1) #0 {
  %3 = alloca %struct.pollfd, align 4
  %4 = alloca %struct.RTSPMessageHeader, align 8
  %5 = getelementptr inbounds nuw i8, ptr %0, i64 24
  %6 = load ptr, ptr %5, align 8, !tbaa !4
  call void @llvm.lifetime.start.p0(i64 8, ptr nonnull %3) #6
  %7 = getelementptr inbounds nuw i8, ptr %6, i64 8
  %8 = load ptr, ptr %7, align 8, !tbaa !68
  %9 = tail call i32 @ffurl_get_file_handle(ptr noundef %8) #6
  store i32 %9, ptr %3, align 4, !tbaa !69
  %10 = getelementptr inbounds nuw i8, ptr %3, i64 4
  store i16 1, ptr %10, align 4, !tbaa !71
  %11 = getelementptr inbounds nuw i8, ptr %3, i64 6
  store i16 0, ptr %11, align 2, !tbaa !72
  %12 = call i32 @poll(ptr noundef nonnull %3, i64 noundef 1, i32 noundef 0) #6
  %13 = icmp slt i32 %12, 1
  br i1 %13, label %._crit_edge, label %.lr.ph

.lr.ph:                                           ; preds = %2
  %14 = getelementptr inbounds nuw i8, ptr %6, i64 32
  br label %15

15:                                               ; preds = %.lr.ph, %28
  %16 = load i16, ptr %11, align 2, !tbaa !72
  %17 = and i16 %16, 1
  %.not = icmp eq i16 %17, 0
  br i1 %.not, label %28, label %18

18:                                               ; preds = %15
  call void @llvm.lifetime.start.p0(i64 6960, ptr nonnull %4) #6
  %19 = call i32 @ff_rtsp_read_reply(ptr noundef %0, ptr noundef nonnull %4, ptr noundef null, i32 noundef 1, ptr noundef null) #6
  %20 = icmp slt i32 %19, 0
  br i1 %20, label %.thread, label %21

21:                                               ; preds = %18
  %22 = icmp eq i32 %19, 1
  br i1 %22, label %23, label %26

23:                                               ; preds = %21
  %24 = call i32 @ff_rtsp_skip_packet(ptr noundef %0) #6
  %25 = icmp slt i32 %24, 0
  br i1 %25, label %.thread, label %26

.thread:                                          ; preds = %18, %23
  %.2.ph = phi i32 [ %24, %23 ], [ -32, %18 ]
  call void @llvm.lifetime.end.p0(i64 6960, ptr nonnull %4) #6
  br label %.loopexit

26:                                               ; preds = %21, %23
  %27 = load i32, ptr %14, align 8, !tbaa !67
  %.not32 = icmp eq i32 %27, 1
  call void @llvm.lifetime.end.p0(i64 6960, ptr nonnull %4) #6
  br i1 %.not32, label %28, label %.loopexit

28:                                               ; preds = %26, %15
  %29 = call i32 @poll(ptr noundef nonnull %3, i64 noundef 1, i32 noundef 0) #6
  %30 = icmp slt i32 %29, 1
  br i1 %30, label %._crit_edge, label %15

._crit_edge:                                      ; preds = %28, %2
  %31 = getelementptr inbounds nuw i8, ptr %1, i64 36
  %32 = load i32, ptr %31, align 4, !tbaa !73
  %33 = icmp slt i32 %32, 0
  br i1 %33, label %.loopexit, label %34

34:                                               ; preds = %._crit_edge
  %35 = getelementptr inbounds nuw i8, ptr %6, i64 16
  %36 = load i32, ptr %35, align 8, !tbaa !78
  %.not33 = icmp slt i32 %32, %36
  br i1 %.not33, label %37, label %.loopexit

37:                                               ; preds = %34
  %38 = getelementptr inbounds nuw i8, ptr %6, i64 24
  %39 = load ptr, ptr %38, align 8, !tbaa !79
  %40 = zext nneg i32 %32 to i64
  %41 = getelementptr inbounds nuw ptr, ptr %39, i64 %40
  %42 = load ptr, ptr %41, align 8, !tbaa !80
  %43 = getelementptr inbounds nuw i8, ptr %42, i64 8
  %44 = load ptr, ptr %43, align 8, !tbaa !56
  %45 = call i32 @ff_write_chained(ptr noundef %44, i32 noundef 0, ptr noundef nonnull %1, ptr noundef %0, i32 noundef 0) #6
  %.not34 = icmp eq i32 %45, 0
  br i1 %.not34, label %46, label %.loopexit

46:                                               ; preds = %37
  %47 = getelementptr inbounds nuw i8, ptr %6, i64 580
  %48 = load i32, ptr %47, align 4, !tbaa !82
  %49 = icmp eq i32 %48, 1
  br i1 %49, label %50, label %.loopexit

50:                                               ; preds = %46
  %51 = call i32 @ff_rtsp_tcp_write_packet(ptr noundef %0, ptr noundef nonnull %42)
  br label %.loopexit

.loopexit:                                        ; preds = %26, %.thread, %37, %46, %50, %._crit_edge, %34
  %.3 = phi i32 [ -1094995529, %34 ], [ -1094995529, %._crit_edge ], [ %45, %37 ], [ %51, %50 ], [ 0, %46 ], [ %.2.ph, %.thread ], [ -32, %26 ]
  call void @llvm.lifetime.end.p0(i64 8, ptr nonnull %3) #6
  ret i32 %.3
}